; Function Attrs: mustprogress uwtable
define void @_ZN7rocksdb28FaultInjectionSecondaryCache12ResultHandle4WaitEv(ptr noundef nonnull align 8 captures(none) dereferenceable(40) %0) unnamed_addr #0 align 2 {
  %2 = getelementptr inbounds nuw i8, ptr %0, i64 16
  %3 = load ptr, ptr %2, align 8, !tbaa !47
  %4 = load ptr, ptr %3, align 8, !tbaa !48
  %5 = getelementptr inbounds nuw i8, ptr %4, i64 24
  %6 = load ptr, ptr %5, align 8
  tail call void %6(ptr noundef nonnull align 8 dereferenceable(8) %3)
  tail call void @_ZN7rocksdb28FaultInjectionSecondaryCache12ResultHandle17UpdateHandleValueEPS1_(ptr noundef nonnull %0)
  ret void
}